; Function Attrs: nounwind uwtable
define hidden void @zim_DOMNode_isSupported(ptr nocapture noundef readonly %0, ptr nocapture noundef writeonly %1) local_unnamed_addr #0 {
  %3 = alloca ptr, align 8
  %4 = alloca ptr, align 8
  %5 = getelementptr inbounds i8, ptr %0, i64 44
  %6 = load i32, ptr %5, align 4
  %7 = call i32 (i32, ptr, ...) @zend_parse_parameters(i32 noundef %6, ptr noundef nonnull @.str.17, ptr noundef nonnull %3, ptr noundef nonnull %4) #12
  %8 = icmp eq i32 %7, -1
  br i1 %8, label %9, label %12

9:                                                ; preds = %2
  %10 = load ptr, ptr getelementptr inbounds (%struct._zend_executor_globals, ptr @executor_globals, i64 0, i32 50), align 8
  %11 = icmp ne ptr %10, null
  call void @llvm.assume(i1 %11)
  br label %18

12:                                               ; preds = %2
  %13 = load ptr, ptr %3, align 8
  %14 = load ptr, ptr %4, align 8
  %15 = call zeroext i1 @dom_has_feature(ptr noundef %13, ptr noundef %14) #12
  %16 = select i1 %15, i32 3, i32 2
  %17 = getelementptr inbounds i8, ptr %1, i64 8
  store i32 %16, ptr %17, align 8
  br label %18

18:                                               ; preds = %12, %9
  ret void
}